; Function Attrs: nounwind uwtable
define i64 @ffio_get_checksum(ptr noundef captures(none) %0) local_unnamed_addr #3 {
  %2 = getelementptr inbounds nuw i8, ptr %0, i64 120
  %3 = load ptr, ptr %2, align 8, !tbaa !39
  %4 = getelementptr inbounds nuw i8, ptr %0, i64 104
  %5 = load i64, ptr %4, align 8, !tbaa !40
  %6 = getelementptr inbounds nuw i8, ptr %0, i64 112
  %7 = load ptr, ptr %6, align 8, !tbaa !41
  %8 = getelementptr inbounds nuw i8, ptr %0, i64 24
  %9 = load ptr, ptr %8, align 8, !tbaa !16
  %10 = ptrtoint ptr %9 to i64
  %11 = ptrtoint ptr %7 to i64
  %12 = sub i64 %10, %11
  %13 = trunc i64 %12 to i32
  %14 = tail call i64 %3(i64 noundef %5, ptr noundef %7, i32 noundef %13) #14
  store i64 %14, ptr %4, align 8, !tbaa !40
  store ptr null, ptr %2, align 8, !tbaa !39
  ret i64 %14
}